; Function Attrs: nounwind uwtable
define ptr @l_Lean_ParseImports_State_next(ptr noundef %0, ptr noundef %1, ptr noundef %2) local_unnamed_addr #0 {
  %.val = load i32, ptr %0, align 4, !tbaa !4
  %4 = icmp eq i32 %.val, 1
  br i1 %4, label %5, label %18

5:                                                ; preds = %3
  %6 = getelementptr inbounds nuw i8, ptr %0, i64 16
  %7 = load ptr, ptr %6, align 8, !tbaa !10
  %8 = ptrtoint ptr %7 to i64
  %9 = and i64 %8, 1
  %.not42 = icmp eq i64 %9, 0
  br i1 %.not42, label %10, label %lean_dec.exit33

10:                                               ; preds = %5
  %11 = load i32, ptr %7, align 4, !tbaa !4
  %12 = icmp sgt i32 %11, 1
  br i1 %12, label %13, label %15, !prof !9

13:                                               ; preds = %10
  %14 = add nsw i32 %11, -1
  store i32 %14, ptr %7, align 4, !tbaa !4
  br label %lean_dec.exit33

15:                                               ; preds = %10
  %.not.i = icmp eq i32 %11, 0
  br i1 %.not.i, label %lean_dec.exit33, label %16

16:                                               ; preds = %15
  tail call void @lean_dec_ref_cold(ptr noundef nonnull %7) #6
  br label %lean_dec.exit33

lean_dec.exit33:                                  ; preds = %16, %15, %13, %5
  %17 = tail call ptr @lean_string_utf8_next(ptr noundef %1, ptr noundef %2) #6
  store ptr %17, ptr %6, align 8, !tbaa !10
  br label %65

18:                                               ; preds = %3
  %19 = getelementptr inbounds nuw i8, ptr %0, i64 8
  %20 = load ptr, ptr %19, align 8, !tbaa !10
  %21 = getelementptr inbounds nuw i8, ptr %0, i64 24
  %22 = load ptr, ptr %21, align 8, !tbaa !10
  %23 = getelementptr inbounds nuw i8, ptr %0, i64 32
  %24 = load i8, ptr %23, align 1, !tbaa !15
  %25 = getelementptr inbounds nuw i8, ptr %0, i64 33
  %26 = load i8, ptr %25, align 1, !tbaa !15
  %27 = getelementptr inbounds nuw i8, ptr %0, i64 34
  %28 = load i8, ptr %27, align 1, !tbaa !15
  %29 = ptrtoint ptr %22 to i64
  %30 = and i64 %29, 1
  %.not = icmp eq i64 %30, 0
  br i1 %.not, label %31, label %lean_inc.exit32

31:                                               ; preds = %18
  %.val.i = load i32, ptr %22, align 4, !tbaa !4
  %32 = icmp sgt i32 %.val.i, 0
  br i1 %32, label %33, label %35, !prof !9

33:                                               ; preds = %31
  %34 = add nuw i32 %.val.i, 1
  store i32 %34, ptr %22, align 4, !tbaa !4
  br label %lean_inc.exit32

35:                                               ; preds = %31
  %.not.i36 = icmp eq i32 %.val.i, 0
  br i1 %.not.i36, label %lean_inc.exit32, label %36

36:                                               ; preds = %35
  tail call void @lean_inc_ref_cold(ptr noundef nonnull %22) #6
  br label %lean_inc.exit32

lean_inc.exit32:                                  ; preds = %36, %35, %33, %18
  %37 = ptrtoint ptr %20 to i64
  %38 = and i64 %37, 1
  %.not40 = icmp eq i64 %38, 0
  br i1 %.not40, label %39, label %lean_inc.exit

39:                                               ; preds = %lean_inc.exit32
  %.val.i37 = load i32, ptr %20, align 4, !tbaa !4
  %40 = icmp sgt i32 %.val.i37, 0
  br i1 %40, label %41, label %43, !prof !9

41:                                               ; preds = %39
  %42 = add nuw i32 %.val.i37, 1
  store i32 %42, ptr %20, align 4, !tbaa !4
  br label %lean_inc.exit

43:                                               ; preds = %39
  %.not.i38 = icmp eq i32 %.val.i37, 0
  br i1 %.not.i38, label %lean_inc.exit, label %44

44:                                               ; preds = %43
  tail call void @lean_inc_ref_cold(ptr noundef nonnull %20) #6
  br label %lean_inc.exit

lean_inc.exit:                                    ; preds = %44, %43, %41, %lean_inc.exit32
  %45 = ptrtoint ptr %0 to i64
  %46 = and i64 %45, 1
  %.not41 = icmp eq i64 %46, 0
  br i1 %.not41, label %47, label %lean_dec.exit

47:                                               ; preds = %lean_inc.exit
  %48 = load i32, ptr %0, align 4, !tbaa !4
  %49 = icmp sgt i32 %48, 1
  br i1 %49, label %50, label %52, !prof !9

50:                                               ; preds = %47
  %51 = add nsw i32 %48, -1
  store i32 %51, ptr %0, align 4, !tbaa !4
  br label %lean_dec.exit

52:                                               ; preds = %47
  %.not.i34 = icmp eq i32 %48, 0
  br i1 %.not.i34, label %lean_dec.exit, label %53

53:                                               ; preds = %52
  tail call void @lean_dec_ref_cold(ptr noundef nonnull %0) #6
  br label %lean_dec.exit

lean_dec.exit:                                    ; preds = %53, %52, %50, %lean_inc.exit
  %54 = tail call ptr @lean_string_utf8_next(ptr noundef %1, ptr noundef %2) #6
  tail call void @lean_inc_heartbeat() #6
  %55 = tail call noalias ptr @mi_malloc_small(i64 noundef 40) #6
  %56 = icmp eq ptr %55, null
  br i1 %56, label %57, label %lean_alloc_ctor.exit

57:                                               ; preds = %lean_dec.exit
  tail call void @lean_internal_panic_out_of_memory() #7
  unreachable

lean_alloc_ctor.exit:                             ; preds = %lean_dec.exit
  %58 = getelementptr inbounds nuw i8, ptr %55, i64 4
  %59 = getelementptr inbounds nuw i8, ptr %55, i64 32
  store i64 0, ptr %59, align 8, !tbaa !16
  store i32 1, ptr %55, align 4, !tbaa !4
  store i32 196648, ptr %58, align 4
  %60 = getelementptr inbounds nuw i8, ptr %55, i64 8
  store ptr %20, ptr %60, align 8, !tbaa !10
  %61 = getelementptr inbounds nuw i8, ptr %55, i64 16
  store ptr %54, ptr %61, align 8, !tbaa !10
  %62 = getelementptr inbounds nuw i8, ptr %55, i64 24
  store ptr %22, ptr %62, align 8, !tbaa !10
  store i8 %24, ptr %59, align 1, !tbaa !15
  %63 = getelementptr inbounds nuw i8, ptr %55, i64 33
  store i8 %26, ptr %63, align 1, !tbaa !15
  %64 = getelementptr inbounds nuw i8, ptr %55, i64 34
  store i8 %28, ptr %64, align 1, !tbaa !15
  br label %65

65:                                               ; preds = %lean_alloc_ctor.exit, %lean_dec.exit33
  %.0 = phi ptr [ %0, %lean_dec.exit33 ], [ %55, %lean_alloc_ctor.exit ]
  ret ptr %.0
}